target datalayout = "e-m:e-p270:32:32-p271:32:32-p272:64:64-i64:64-i128:128-f80:128-n8:16:32:64-S128"
target triple = "x86_64-pc-linux-gnu"

%struct.If_Man_t_ = type { ptr, ptr, ptr, ptr, ptr, ptr, ptr, ptr, [5 x i32], i32, float, float, float, float, i32, float, i32, i32, [4 x ptr], ptr, i32, i32, i32, ptr, [3 x [32 x i32]], i32, i32, i32, ptr, ptr, ptr, ptr, ptr, ptr, ptr, i32, i32, i32, [16 x i32], i32, i32, i32, i32, ptr, ptr, ptr, ptr, ptr, i32, i32, [32 x i32], [32 x i32], i32, i32, i32, i32, ptr, [16 x ptr], [16 x ptr], [16 x ptr], [16 x ptr], [16 x ptr], [16 x ptr], [16 x ptr], ptr, ptr, ptr, ptr, [32 x i8], i32, i32, i32, [6 x i64], [2 x i32], [2 x i32], ptr, [15 x i32], ptr, ptr, ptr, [16 x i32], ptr, ptr, ptr, ptr, [2 x i32], [2 x i32], [2 x ptr], ptr }
%struct.Lpk_Man_t_ = type { ptr, ptr, ptr, i32, i32, i32, i32, [10000 x %struct.Lpk_Cut_t_], [10000 x i32], ptr, ptr, ptr, ptr, i32, i32, i32, [100 x i32], [100 x i32], ptr, ptr, ptr, ptr, ptr, ptr, ptr, [32 x i32], [5 x [16 x ptr]], [8 x ptr], ptr, i32, i32, i32, i32, i32, i32, i32, i32, i32, i32, i32, i32, i32, [17 x i32], i64, i64, i64, i64, i64, i64, i64, i64, i64, i64, i64, i64, i64 }
%struct.Lpk_Cut_t_ = type { i32, [2 x i32], float, i32, [100 x i32], [100 x i32] }
%struct.Lpk_Par_t_ = type { i32, i32, i32, i32, i32, i32, i32, i32, i32, i32, i32, i32 }
%struct.If_Par_t_ = type { i32, i32, i32, i32, i32, i32, float, float, i32, i32, i32, i32, i32, i32, i32, i32, i32, i32, i32, i32, i32, i32, i32, i32, i32, i32, i32, i32, i32, i32, i32, i32, i32, i32, i32, i32, i32, i32, i32, i32, i32, i32, i32, i32, i32, i32, i32, i32, i32, ptr, float, i32, i32, i32, i32, i32, i32, i32, i32, i32, i32, i32, i32, i32, i32, float, float, float, ptr, ptr, ptr, ptr, ptr, ptr, ptr, ptr, ptr }

; Function Attrs: nounwind uwtable
define void @Lpk_IfManStart(ptr noundef %0) #0 {
  %2 = alloca ptr, align 8
  %3 = alloca ptr, align 8
  store ptr %0, ptr %2, align 8
  %4 = call noalias ptr @malloc(i64 noundef 352) #10
  store ptr %4, ptr %3, align 8
  %5 = load ptr, ptr %3, align 8
  call void @llvm.memset.p0.i64(ptr align 8 %5, i8 0, i64 352, i1 false)
  %6 = load ptr, ptr %2, align 8
  %7 = getelementptr inbounds %struct.Lpk_Man_t_, ptr %6, i32 0, i32 0
  %8 = load ptr, ptr %7, align 8
  %9 = getelementptr inbounds %struct.Lpk_Par_t_, ptr %8, i32 0, i32 10
  %10 = load i32, ptr %9, align 4
  %11 = load ptr, ptr %3, align 8
  %12 = getelementptr inbounds %struct.If_Par_t_, ptr %11, i32 0, i32 0
  store i32 %10, ptr %12, align 8
  %13 = load ptr, ptr %3, align 8
  %14 = getelementptr inbounds %struct.If_Par_t_, ptr %13, i32 0, i32 1
  store i32 16, ptr %14, align 4
  %15 = load ptr, ptr %3, align 8
  %16 = getelementptr inbounds %struct.If_Par_t_, ptr %15, i32 0, i32 2
  store i32 0, ptr %16, align 8
  %17 = load ptr, ptr %3, align 8
  %18 = getelementptr inbounds %struct.If_Par_t_, ptr %17, i32 0, i32 3
  store i32 0, ptr %18, align 4
  %19 = load ptr, ptr %3, align 8
  %20 = getelementptr inbounds %struct.If_Par_t_, ptr %19, i32 0, i32 6
  store float -1.000000e+00, ptr %20, align 8
  %21 = load ptr, ptr %3, align 8
  %22 = getelementptr inbounds %struct.If_Par_t_, ptr %21, i32 0, i32 7
  store float 0x3F747AE140000000, ptr %22, align 4
  %23 = load ptr, ptr %3, align 8
  %24 = getelementptr inbounds %struct.If_Par_t_, ptr %23, i32 0, i32 13
  store i32 0, ptr %24, align 4
  %25 = load ptr, ptr %3, align 8
  %26 = getelementptr inbounds %struct.If_Par_t_, ptr %25, i32 0, i32 14
  store i32 1, ptr %26, align 8
  %27 = load ptr, ptr %3, align 8
  %28 = getelementptr inbounds %struct.If_Par_t_, ptr %27, i32 0, i32 15
  store i32 0, ptr %28, align 4
  %29 = load ptr, ptr %3, align 8
  %30 = getelementptr inbounds %struct.If_Par_t_, ptr %29, i32 0, i32 16
  store i32 0, ptr %30, align 8
  %31 = load ptr, ptr %3, align 8
  %32 = getelementptr inbounds %struct.If_Par_t_, ptr %31, i32 0, i32 17
  store i32 0, ptr %32, align 4
  %33 = load ptr, ptr %3, align 8
  %34 = getelementptr inbounds %struct.If_Par_t_, ptr %33, i32 0, i32 47
  store i32 0, ptr %34, align 4
  %35 = load ptr, ptr %3, align 8
  %36 = getelementptr inbounds %struct.If_Par_t_, ptr %35, i32 0, i32 53
  store i32 1, ptr %36, align 4
  %37 = load ptr, ptr %3, align 8
  %38 = getelementptr inbounds %struct.If_Par_t_, ptr %37, i32 0, i32 54
  store i32 0, ptr %38, align 8
  %39 = load ptr, ptr %3, align 8
  %40 = getelementptr inbounds %struct.If_Par_t_, ptr %39, i32 0, i32 59
  store i32 0, ptr %40, align 4
  %41 = load ptr, ptr %3, align 8
  %42 = getelementptr inbounds %struct.If_Par_t_, ptr %41, i32 0, i32 60
  store i32 0, ptr %42, align 8
  %43 = load ptr, ptr %3, align 8
  %44 = getelementptr inbounds %struct.If_Par_t_, ptr %43, i32 0, i32 68
  store ptr null, ptr %44, align 8
  %45 = load ptr, ptr %3, align 8
  %46 = getelementptr inbounds %struct.If_Par_t_, ptr %45, i32 0, i32 69
  store ptr null, ptr %46, align 8
  %47 = load ptr, ptr %3, align 8
  %48 = getelementptr inbounds %struct.If_Par_t_, ptr %47, i32 0, i32 69
  store ptr null, ptr %48, align 8
  %49 = load ptr, ptr %3, align 8
  %50 = getelementptr inbounds %struct.If_Par_t_, ptr %49, i32 0, i32 55
  store i32 0, ptr %50, align 4
  %51 = load ptr, ptr %3, align 8
  %52 = getelementptr inbounds %struct.If_Par_t_, ptr %51, i32 0, i32 56
  store i32 0, ptr %52, align 8
  %53 = load ptr, ptr %3, align 8
  %54 = getelementptr inbounds %struct.If_Par_t_, ptr %53, i32 0, i32 57
  store i32 0, ptr %54, align 4
  %55 = load ptr, ptr %3, align 8
  %56 = getelementptr inbounds %struct.If_Par_t_, ptr %55, i32 0, i32 58
  store i32 0, ptr %56, align 8
  %57 = load ptr, ptr %3, align 8
  %58 = call ptr @If_ManStart(ptr noundef %57)
  %59 = load ptr, ptr %2, align 8
  %60 = getelementptr inbounds %struct.Lpk_Man_t_, ptr %59, i32 0, i32 10
  store ptr %58, ptr %60, align 8
  %61 = load ptr, ptr %2, align 8
  %62 = getelementptr inbounds %struct.Lpk_Man_t_, ptr %61, i32 0, i32 10
  %63 = load ptr, ptr %62, align 8
  call void @If_ManSetupSetAll(ptr noundef %63, i32 noundef 1000)
  %64 = call noalias ptr @malloc(i64 noundef 128) #10
  %65 = load ptr, ptr %2, align 8
  %66 = getelementptr inbounds %struct.Lpk_Man_t_, ptr %65, i32 0, i32 10
  %67 = load ptr, ptr %66, align 8
  %68 = getelementptr inbounds %struct.If_Man_t_, ptr %67, i32 0, i32 1
  %69 = load ptr, ptr %68, align 8
  %70 = getelementptr inbounds %struct.If_Par_t_, ptr %69, i32 0, i32 69
  store ptr %64, ptr %70, align 8
  ret void
}