; Function Attrs: nounwind uwtable
define void @Lpk_IfManStart(ptr noundef captures(none) initializes((8240048, 8240056)) %0) local_unnamed_addr #0 {
  %calloc = tail call dereferenceable_or_null(352) ptr @calloc(i64 1, i64 352)
  %2 = load ptr, ptr %0, align 8
  %3 = getelementptr inbounds nuw i8, ptr %2, i64 40
  %4 = load i32, ptr %3, align 4
  store i32 %4, ptr %calloc, align 8
  %5 = getelementptr inbounds nuw i8, ptr %calloc, i64 4
  store i32 16, ptr %5, align 4
  %6 = getelementptr inbounds nuw i8, ptr %calloc, i64 24
  store float -1.000000e+00, ptr %6, align 8
  %7 = getelementptr inbounds nuw i8, ptr %calloc, i64 28
  store float 0x3F747AE140000000, ptr %7, align 4
  %8 = getelementptr inbounds nuw i8, ptr %calloc, i64 56
  store i32 1, ptr %8, align 8
  %9 = getelementptr inbounds nuw i8, ptr %calloc, i64 220
  store i32 1, ptr %9, align 4
  %10 = tail call ptr @If_ManStart(ptr noundef nonnull %calloc) #15
  %11 = getelementptr inbounds nuw i8, ptr %0, i64 8240048
  store ptr %10, ptr %11, align 8
  tail call void @If_ManSetupSetAll(ptr noundef %10, i32 noundef 1000) #15
  %12 = tail call noalias dereferenceable_or_null(128) ptr @malloc(i64 noundef 128) #14
  %13 = load ptr, ptr %11, align 8
  %14 = getelementptr inbounds nuw i8, ptr %13, i64 8
  %15 = load ptr, ptr %14, align 8
  %16 = getelementptr inbounds nuw i8, ptr %15, i64 288
  store ptr %12, ptr %16, align 8
  ret void
}